target datalayout = "e-m:e-p270:32:32-p271:32:32-p272:64:64-i64:64-i128:128-f80:128-n8:16:32:64-S128"
target triple = "x86_64-pc-linux-gnu"

%struct._packet_info = type { ptr, ptr, i32, i32, %struct.nstime_t, %struct.nstime_t, %struct.nstime_t, i8, ptr, ptr, ptr, ptr, %struct._address, %struct._address, %struct._address, %struct._address, %struct._address, %struct._address, i32, ptr, i8, [3 x i8], %struct.anon, i32, i32, i32, i32, ptr, i8, ptr, ptr, i16, i16, i32, i32, i16, i32, i32, ptr, ptr, ptr, i8, i8, i16, i16, i16, i32, i16, i16, ptr, ptr, ptr, ptr, ptr, i32, i32 }
%struct.nstime_t = type { i64, i32 }
%struct._address = type { i32, i32, ptr, ptr }
%struct.anon = type { i8, [3 x i8] }

@hf_gryphon_ldf_encoding_value = internal global i32 0, align 4
@hf_gryphon_ldf_encoding_min = internal global i32 0, align 4
@hf_gryphon_ldf_encoding_max = internal global i32 0, align 4
@hf_gryphon_ldf_signal_encoding_type = internal global i32 0, align 4
@hf_gryphon_ldf_signal_encoding_logical = internal global i32 0, align 4

; Function Attrs: null_pointer_is_valid sspstrong uwtable
define internal i32 @resp_ldf_do_encoding_block(ptr noundef %0, ptr noundef %1, i32 noundef %2, ptr noundef %3) #0 {
  %5 = alloca ptr, align 8
  %6 = alloca ptr, align 8
  %7 = alloca i32, align 4
  %8 = alloca ptr, align 8
  %9 = alloca ptr, align 8
  %10 = alloca i32, align 4
  store ptr %0, ptr %5, align 8
  store ptr %1, ptr %6, align 8
  store i32 %2, ptr %7, align 4
  store ptr %3, ptr %8, align 8
  call void @llvm.lifetime.start.p0(i64 8, ptr %9) #7
  call void @llvm.lifetime.start.p0(i64 4, ptr %10) #7
  %11 = load ptr, ptr %6, align 8
  %12 = getelementptr inbounds nuw %struct._packet_info, ptr %11, i32 0, i32 51
  %13 = load ptr, ptr %12, align 8
  %14 = load ptr, ptr %5, align 8
  %15 = load i32, ptr %7, align 4
  %16 = call ptr @tvb_get_stringz_enc(ptr noundef %13, ptr noundef %14, i32 noundef %15, ptr noundef %10, i32 noundef 0)
  store ptr %16, ptr %9, align 8
  %17 = load ptr, ptr %8, align 8
  %18 = load i32, ptr @hf_gryphon_ldf_signal_encoding_type, align 4
  %19 = load ptr, ptr %5, align 8
  %20 = load i32, ptr %7, align 4
  %21 = load ptr, ptr %9, align 8
  %22 = call ptr @proto_tree_add_string(ptr noundef %17, i32 noundef %18, ptr noundef %19, i32 noundef %20, i32 noundef 12, ptr noundef %21)
  %23 = load i32, ptr %7, align 4
  %24 = add i32 %23, 12
  store i32 %24, ptr %7, align 4
  %25 = load ptr, ptr %9, align 8
  %26 = getelementptr i8, ptr %25, i64 0
  %27 = load i8, ptr %26, align 1
  %28 = sext i8 %27 to i32
  %29 = icmp eq i32 %28, 108
  br i1 %29, label %30, label %46

30:                                               ; preds = %4
  %31 = load ptr, ptr %8, align 8
  %32 = load i32, ptr @hf_gryphon_ldf_encoding_value, align 4
  %33 = load ptr, ptr %5, align 8
  %34 = load i32, ptr %7, align 4
  %35 = call ptr @proto_tree_add_item(ptr noundef %31, i32 noundef %32, ptr noundef %33, i32 noundef %34, i32 noundef 2, i32 noundef 0)
  %36 = load i32, ptr %7, align 4
  %37 = add i32 %36, 2
  store i32 %37, ptr %7, align 4
  %38 = load ptr, ptr %8, align 8
  %39 = load i32, ptr @hf_gryphon_ldf_signal_encoding_logical, align 4
  %40 = load ptr, ptr %5, align 8
  %41 = load i32, ptr %7, align 4
  %42 = call ptr @proto_tree_add_item_ret_length(ptr noundef %38, i32 noundef %39, ptr noundef %40, i32 noundef %41, i32 noundef -1, i32 noundef 0, ptr noundef %10)
  %43 = load i32, ptr %10, align 4
  %44 = load i32, ptr %7, align 4
  %45 = add i32 %44, %43
  store i32 %45, ptr %7, align 4
  br label %123

46:                                               ; preds = %4
  %47 = load ptr, ptr %9, align 8
  %48 = getelementptr i8, ptr %47, i64 0
  %49 = load i8, ptr %48, align 1
  %50 = sext i8 %49 to i32
  %51 = icmp eq i32 %50, 112
  br i1 %51, label %52, label %91

52:                                               ; preds = %46
  %53 = load ptr, ptr %8, align 8
  %54 = load i32, ptr @hf_gryphon_ldf_encoding_min, align 4
  %55 = load ptr, ptr %5, align 8
  %56 = load i32, ptr %7, align 4
  %57 = call ptr @proto_tree_add_item(ptr noundef %53, i32 noundef %54, ptr noundef %55, i32 noundef %56, i32 noundef 2, i32 noundef 0)
  %58 = load i32, ptr %7, align 4
  %59 = add i32 %58, 2
  store i32 %59, ptr %7, align 4
  %60 = load ptr, ptr %8, align 8
  %61 = load i32, ptr @hf_gryphon_ldf_encoding_max, align 4
  %62 = load ptr, ptr %5, align 8
  %63 = load i32, ptr %7, align 4
  %64 = call ptr @proto_tree_add_item(ptr noundef %60, i32 noundef %61, ptr noundef %62, i32 noundef %63, i32 noundef 2, i32 noundef 0)
  %65 = load i32, ptr %7, align 4
  %66 = add i32 %65, 2
  store i32 %66, ptr %7, align 4
  %67 = load ptr, ptr %8, align 8
  %68 = load i32, ptr @hf_gryphon_ldf_signal_encoding_logical, align 4
  %69 = load ptr, ptr %5, align 8
  %70 = load i32, ptr %7, align 4
  %71 = call ptr @proto_tree_add_item_ret_length(ptr noundef %67, i32 noundef %68, ptr noundef %69, i32 noundef %70, i32 noundef -1, i32 noundef 0, ptr noundef %10)
  %72 = load i32, ptr %10, align 4
  %73 = load i32, ptr %7, align 4
  %74 = add i32 %73, %72
  store i32 %74, ptr %7, align 4
  %75 = load ptr, ptr %8, align 8
  %76 = load i32, ptr @hf_gryphon_ldf_signal_encoding_logical, align 4
  %77 = load ptr, ptr %5, align 8
  %78 = load i32, ptr %7, align 4
  %79 = call ptr @proto_tree_add_item_ret_length(ptr noundef %75, i32 noundef %76, ptr noundef %77, i32 noundef %78, i32 noundef -1, i32 noundef 0, ptr noundef %10)
  %80 = load i32, ptr %10, align 4
  %81 = load i32, ptr %7, align 4
  %82 = add i32 %81, %80
  store i32 %82, ptr %7, align 4
  %83 = load ptr, ptr %8, align 8
  %84 = load i32, ptr @hf_gryphon_ldf_signal_encoding_logical, align 4
  %85 = load ptr, ptr %5, align 8
  %86 = load i32, ptr %7, align 4
  %87 = call ptr @proto_tree_add_item_ret_length(ptr noundef %83, i32 noundef %84, ptr noundef %85, i32 noundef %86, i32 noundef -1, i32 noundef 0, ptr noundef %10)
  %88 = load i32, ptr %10, align 4
  %89 = load i32, ptr %7, align 4
  %90 = add i32 %89, %88
  store i32 %90, ptr %7, align 4
  br label %122

91:                                               ; preds = %46
  %92 = load ptr, ptr %9, align 8
  %93 = getelementptr i8, ptr %92, i64 0
  %94 = load i8, ptr %93, align 1
  %95 = sext i8 %94 to i32
  %96 = icmp eq i32 %95, 98
  br i1 %96, label %97, label %105

97:                                               ; preds = %91
  %98 = load ptr, ptr %8, align 8
  %99 = load i32, ptr @hf_gryphon_ldf_encoding_value, align 4
  %100 = load ptr, ptr %5, align 8
  %101 = load i32, ptr %7, align 4
  %102 = call ptr @proto_tree_add_item(ptr noundef %98, i32 noundef %99, ptr noundef %100, i32 noundef %101, i32 noundef 2, i32 noundef 0)
  %103 = load i32, ptr %7, align 4
  %104 = add i32 %103, 2
  store i32 %104, ptr %7, align 4
  br label %121

105:                                              ; preds = %91
  %106 = load ptr, ptr %9, align 8
  %107 = getelementptr i8, ptr %106, i64 0
  %108 = load i8, ptr %107, align 1
  %109 = sext i8 %108 to i32
  %110 = icmp eq i32 %109, 97
  br i1 %110, label %111, label %119

111:                                              ; preds = %105
  %112 = load ptr, ptr %8, align 8
  %113 = load i32, ptr @hf_gryphon_ldf_encoding_value, align 4
  %114 = load ptr, ptr %5, align 8
  %115 = load i32, ptr %7, align 4
  %116 = call ptr @proto_tree_add_item(ptr noundef %112, i32 noundef %113, ptr noundef %114, i32 noundef %115, i32 noundef 2, i32 noundef 0)
  %117 = load i32, ptr %7, align 4
  %118 = add i32 %117, 2
  store i32 %118, ptr %7, align 4
  br label %120

119:                                              ; preds = %105
  br label %120

120:                                              ; preds = %119, %111
  br label %121

121:                                              ; preds = %120, %97
  br label %122

122:                                              ; preds = %121, %52
  br label %123

123:                                              ; preds = %122, %30
  %124 = load i32, ptr %7, align 4
  call void @llvm.lifetime.end.p0(i64 4, ptr %10) #7
  call void @llvm.lifetime.end.p0(i64 8, ptr %9) #7
  ret i32 %124
}