; Function Attrs: null_pointer_is_valid sspstrong uwtable
define internal fastcc i32 @resp_ldf_do_encoding_block(ptr noundef %0, ptr %.408.val, i32 noundef %1, ptr noundef %2) unnamed_addr #0 {
  %4 = alloca i32, align 4
  call void @llvm.lifetime.start.p0(i64 4, ptr nonnull %4) #5
  %5 = call ptr @tvb_get_stringz_enc(ptr noundef %.408.val, ptr noundef %0, i32 noundef %1, ptr noundef nonnull %4, i32 noundef 0)
  %6 = load i32, ptr @hf_gryphon_ldf_signal_encoding_type, align 4
  %7 = call ptr @proto_tree_add_string(ptr noundef %2, i32 noundef %6, ptr noundef %0, i32 noundef %1, i32 noundef 12, ptr noundef %5)
  %8 = add i32 %1, 12
  %9 = load i8, ptr %5, align 1
  switch i8 %9, label %45 [
    i8 108, label %10
    i8 112, label %18
    i8 98, label %37
    i8 97, label %41
  ]

10:                                               ; preds = %3
  %11 = load i32, ptr @hf_gryphon_ldf_encoding_value, align 4
  %12 = call ptr @proto_tree_add_item(ptr noundef %2, i32 noundef %11, ptr noundef %0, i32 noundef %8, i32 noundef 2, i32 noundef 0)
  %13 = add i32 %1, 14
  %14 = load i32, ptr @hf_gryphon_ldf_signal_encoding_logical, align 4
  %15 = call ptr @proto_tree_add_item_ret_length(ptr noundef %2, i32 noundef %14, ptr noundef %0, i32 noundef %13, i32 noundef -1, i32 noundef 0, ptr noundef nonnull %4)
  %16 = load i32, ptr %4, align 4
  %17 = add i32 %16, %13
  br label %45

18:                                               ; preds = %3
  %19 = load i32, ptr @hf_gryphon_ldf_encoding_min, align 4
  %20 = call ptr @proto_tree_add_item(ptr noundef %2, i32 noundef %19, ptr noundef %0, i32 noundef %8, i32 noundef 2, i32 noundef 0)
  %21 = add i32 %1, 14
  %22 = load i32, ptr @hf_gryphon_ldf_encoding_max, align 4
  %23 = call ptr @proto_tree_add_item(ptr noundef %2, i32 noundef %22, ptr noundef %0, i32 noundef %21, i32 noundef 2, i32 noundef 0)
  %24 = add i32 %1, 16
  %25 = load i32, ptr @hf_gryphon_ldf_signal_encoding_logical, align 4
  %26 = call ptr @proto_tree_add_item_ret_length(ptr noundef %2, i32 noundef %25, ptr noundef %0, i32 noundef %24, i32 noundef -1, i32 noundef 0, ptr noundef nonnull %4)
  %27 = load i32, ptr %4, align 4
  %28 = add i32 %27, %24
  %29 = load i32, ptr @hf_gryphon_ldf_signal_encoding_logical, align 4
  %30 = call ptr @proto_tree_add_item_ret_length(ptr noundef %2, i32 noundef %29, ptr noundef %0, i32 noundef %28, i32 noundef -1, i32 noundef 0, ptr noundef nonnull %4)
  %31 = load i32, ptr %4, align 4
  %32 = add i32 %31, %28
  %33 = load i32, ptr @hf_gryphon_ldf_signal_encoding_logical, align 4
  %34 = call ptr @proto_tree_add_item_ret_length(ptr noundef %2, i32 noundef %33, ptr noundef %0, i32 noundef %32, i32 noundef -1, i32 noundef 0, ptr noundef nonnull %4)
  %35 = load i32, ptr %4, align 4
  %36 = add i32 %35, %32
  br label %45

37:                                               ; preds = %3
  %38 = load i32, ptr @hf_gryphon_ldf_encoding_value, align 4
  %39 = call ptr @proto_tree_add_item(ptr noundef %2, i32 noundef %38, ptr noundef %0, i32 noundef %8, i32 noundef 2, i32 noundef 0)
  %40 = add i32 %1, 14
  br label %45

41:                                               ; preds = %3
  %42 = load i32, ptr @hf_gryphon_ldf_encoding_value, align 4
  %43 = call ptr @proto_tree_add_item(ptr noundef %2, i32 noundef %42, ptr noundef %0, i32 noundef %8, i32 noundef 2, i32 noundef 0)
  %44 = add i32 %1, 14
  br label %45

45:                                               ; preds = %3, %18, %41, %37, %10
  %.0 = phi i32 [ %17, %10 ], [ %36, %18 ], [ %40, %37 ], [ %44, %41 ], [ %8, %3 ]
  call void @llvm.lifetime.end.p0(i64 4, ptr nonnull %4) #5
  ret i32 %.0
}